   1                     ; C Compiler for STM8 (COSMIC Software)
   2                     ; Generator V4.2.8 - 03 Dec 2008
   4                     .const:	section	.text
   5  0000               _Coeff:
   6  0000 003f787c      	dc.l	4159612
   7  0004 ff810f07      	dc.l	-8319225
   8  0008 003f787c      	dc.l	4159612
   9  000c 007ef015      	dc.l	8318997
  10  0010 ffc10e24      	dc.l	-4125148
  11  0014 003f787c      	dc.l	4159612
  12  0018 ff810f07      	dc.l	-8319225
  13  001c 003f787c      	dc.l	4159612
  14  0020 007ef015      	dc.l	8318997
  15  0024 ffc10e24      	dc.l	-4125148
  16  0028 00408528      	dc.l	4228392
  17  002c ff807e8c      	dc.l	-8356212
  18  0030 003effae      	dc.l	4128686
  19  0034 007f8174      	dc.l	8356212
  20  0038 ffc07b2a      	dc.l	-4162774
  21  003c 0040e4e0      	dc.l	4252896
  22  0040 ff853109      	dc.l	-8048375
  23  0044 003ac587      	dc.l	3851655
  24  0048 007acef7      	dc.l	8048375
  25  004c ffc45599      	dc.l	-3910247
  26  0050 003e6996      	dc.l	4090262
  27  0054 ffba22a8      	dc.l	-4578648
  28  0058 0024641a      	dc.l	2384922
  29  005c 0045dd58      	dc.l	4578648
  30  0060 ffdd324f      	dc.l	-2280881
  31  0064 004e54ff      	dc.l	5133567
  32  0068 fff30d47      	dc.l	-848569
  33  006c 0014de14      	dc.l	1367572
  34  0070 000cf2b9      	dc.l	848569
  35  0074 ffdccced      	dc.l	-2306835
  36  0078 00000000      	dc.l	0
  37  007c 00159ae8      	dc.l	1415912
  38  0080 003f787c      	dc.l	4159612
  39  0084 ff810f07      	dc.l	-8319225
  40  0088 003f787c      	dc.l	4159612
  41  008c 007ef015      	dc.l	8318997
  42  0090 ffc10e24      	dc.l	-4125148
  43  0094 003f787c      	dc.l	4159612
  44  0098 ff810f07      	dc.l	-8319225
  45  009c 003f787c      	dc.l	4159612
  46  00a0 007ef015      	dc.l	8318997
  47  00a4 ffc10e24      	dc.l	-4125148
  48  00a8 00408528      	dc.l	4228392
  49  00ac ff807e8c      	dc.l	-8356212
  50  00b0 003effae      	dc.l	4128686
  51  00b4 007f8174      	dc.l	8356212
  52  00b8 ffc07b2a      	dc.l	-4162774
  53  00bc 0040e4e0      	dc.l	4252896
  54  00c0 ff853109      	dc.l	-8048375
  55  00c4 003ac587      	dc.l	3851655
  56  00c8 007acef7      	dc.l	8048375
  57  00cc ffc45599      	dc.l	-3910247
  58  00d0 003e6996      	dc.l	4090262
  59  00d4 ffba22a8      	dc.l	-4578648
  60  00d8 0024641a      	dc.l	2384922
  61  00dc 0045dd58      	dc.l	4578648
  62  00e0 ffdd324f      	dc.l	-2280881
  63  00e4 004e54ff      	dc.l	5133567
  64  00e8 fff30d47      	dc.l	-848569
  65  00ec 0014de14      	dc.l	1367572
  66  00f0 000cf2b9      	dc.l	848569
  67  00f4 ffdccced      	dc.l	-2306835
  68  00f8 00000000      	dc.l	0
  69  00fc 00159ae8      	dc.l	1415912
  70  0100 0042c3a9      	dc.l	4375465
  71  0104 ff961fee      	dc.l	-6938642
  72  0108 002fd592      	dc.l	3134866
  73  010c 0069e012      	dc.l	6938642
  74  0110 ffcd66c5      	dc.l	-3316027
  75  0114 003fc65c      	dc.l	4179548
  76  0118 ff81c2db      	dc.l	-8273189
  77  011c 003eaeed      	dc.l	4108013
  78  0120 007e3d25      	dc.l	8273189
  79  0124 ffc18ab6      	dc.l	-4093258
  80  0128 0040e379      	dc.l	4252537
  81  012c ff8a614f      	dc.l	-7708337
  82  0130 0039c86f      	dc.l	3786863
  83  0134 00759eb1      	dc.l	7708337
  84  0138 ffc55417      	dc.l	-3845097
  85  013c 0040197c      	dc.l	4200828
  86  0140 ff820577      	dc.l	-8256137
  87  0144 003e44c5      	dc.l	4080837
  88  0148 007dfa89      	dc.l	8256137
  89  014c ffc1a1bf      	dc.l	-4087361
  90  0150 00401f79      	dc.l	4202361
  91  0154 ff816ff6      	dc.l	-8294410
  92  0158 003e9298      	dc.l	4100760
  93  015c 007e900a      	dc.l	8294410
  94  0160 ffc14def      	dc.l	-4108817
  95  0164 00400000      	dc.l	4194304
  96  0168 ffb93b7f      	dc.l	-4637825
  97  016c 00241499      	dc.l	2364569
  98  0170 0046c481      	dc.l	4637825
  99  0174 ffdbeb67      	dc.l	-2364569
 100  0178 00000000      	dc.l	0
 101  017c 00400000      	dc.l	4194304
 102  0180 0042c3a9      	dc.l	4375465
 103  0184 ff961fee      	dc.l	-6938642
 104  0188 002fd592      	dc.l	3134866
 105  018c 0069e012      	dc.l	6938642
 106  0190 ffcd66c5      	dc.l	-3316027
 107  0194 003fc65c      	dc.l	4179548
 108  0198 ff81c2db      	dc.l	-8273189
 109  019c 003eaeed      	dc.l	4108013
 110  01a0 007e3d25      	dc.l	8273189
 111  01a4 ffc18ab6      	dc.l	-4093258
 112  01a8 0040e379      	dc.l	4252537
 113  01ac ff8a614f      	dc.l	-7708337
 114  01b0 0039c86f      	dc.l	3786863
 115  01b4 00759eb1      	dc.l	7708337
 116  01b8 ffc55417      	dc.l	-3845097
 117  01bc 0040197c      	dc.l	4200828
 118  01c0 ff820577      	dc.l	-8256137
 119  01c4 003e44c5      	dc.l	4080837
 120  01c8 007dfa89      	dc.l	8256137
 121  01cc ffc1a1bf      	dc.l	-4087361
 122  01d0 00401f79      	dc.l	4202361
 123  01d4 ff816ff6      	dc.l	-8294410
 124  01d8 003e9298      	dc.l	4100760
 125  01dc 007e900a      	dc.l	8294410
 126  01e0 ffc14def      	dc.l	-4108817
 127  01e4 00400000      	dc.l	4194304
 128  01e8 ffb93b7f      	dc.l	-4637825
 129  01ec 00241499      	dc.l	2364569
 130  01f0 0046c481      	dc.l	4637825
 131  01f4 ffdbeb67      	dc.l	-2364569
 132  01f8 00000000      	dc.l	0
 133  01fc 00400000      	dc.l	4194304
 134  0200 0000b2b6      	dc.l	45750
 135  0204 00000000      	dc.l	0
 136  0208 ffff4d49      	dc.l	-45751
 137  020c 007e8197      	dc.l	8290711
 138  0210 ffc1656d      	dc.l	-4102803
 139  0214 0000b2b6      	dc.l	45750
 140  0218 00000000      	dc.l	0
 141  021c ffff4d49      	dc.l	-45751
 142  0220 007e8197      	dc.l	8290711
 143  0224 ffc1656d      	dc.l	-4102803
 144  0228 00000000      	dc.l	0
 145  022c 00000000      	dc.l	0
 146  0230 000010ce      	dc.l	4302
 147  0234 0000219d      	dc.l	8605
 148  0238 000010ce      	dc.l	4302
 149  023c 007a65c3      	dc.l	8021443
 150  0240 ffc55703      	dc.l	-3844349
 151  0244 003dcdc3      	dc.l	4050371
 152  0248 ff846478      	dc.l	-8100744
 153  024c 003dcdc3      	dc.l	4050371
 154  0250 007b85d5      	dc.l	8095189
 155  0254 ffc44ec7      	dc.l	-3911993
 156  0258 00000000      	dc.l	0
 157  025c 0027dcfd      	dc.l	2612477
 158  0260 ffb04605      	dc.l	-5224955
 159  0264 0027dcfd      	dc.l	2612477
 160  0268 00468a27      	dc.l	4622887
 161  026c ffe71633      	dc.l	-1632717
 162  0270 0027dcfd      	dc.l	2612477
 163  0274 ffb04605      	dc.l	-5224955
 164  0278 0027dcfd      	dc.l	2612477
 165  027c 00468a27      	dc.l	4622887
 166  0280 ffe71633      	dc.l	-1632717
 167  0284 00000000      	dc.l	0
 168  0288 00000000      	dc.l	0
 169  028c 000e718b      	dc.l	946571
 170  0290 001ce317      	dc.l	1893143
 171  0294 000e718b      	dc.l	946571
 172  0298 ffe811b5      	dc.l	-1568331
 173  029c 001e281d      	dc.l	1976349
 174  02a0 00400000      	dc.l	4194304
 175  02a4 ff847a2b      	dc.l	-8095189
 176  02a8 003bb139      	dc.l	3911993
 177  02ac 007b85d5      	dc.l	8095189
 178  02b0 ffc44ec7      	dc.l	-3911993
 179  02b4 00000000      	dc.l	0
 180  02b8 00000000      	dc.l	0
 181  02bc 00400000      	dc.l	4194304
 182  02c0               _VolTable:
 183  02c0 82            	dc.b	130
 184  02c1 86            	dc.b	134
 185  02c2 8a            	dc.b	138
 186  02c3 8e            	dc.b	142
 187  02c4 92            	dc.b	146
 188  02c5 96            	dc.b	150
 189  02c6 9a            	dc.b	154
 190  02c7 9e            	dc.b	158
 191  02c8 a2            	dc.b	162
 192  02c9 a6            	dc.b	166
 193  02ca aa            	dc.b	170
 194  02cb ae            	dc.b	174
 195  02cc b2            	dc.b	178
 196  02cd b6            	dc.b	182
 197  02ce ba            	dc.b	186
 198  02cf be            	dc.b	190
 199  02d0 c2            	dc.b	194
 200  02d1 c6            	dc.b	198
 201  02d2 ca            	dc.b	202
 202  02d3 ce            	dc.b	206
 203  02d4 d2            	dc.b	210
 204  02d5 d6            	dc.b	214
 205  02d6 da            	dc.b	218
 206  02d7 de            	dc.b	222
 207  02d8 e2            	dc.b	226
 208  02d9 e6            	dc.b	230
 209  02da ea            	dc.b	234
 210  02db ee            	dc.b	238
 211  02dc f2            	dc.b	242
 212  02dd f6            	dc.b	246
 213  02de fa            	dc.b	250
 214  02df ff            	dc.b	255
 249                     ; 82 void IDT_Init(void)
 249                     ; 83 {
 251                     	switch	.text
 252  0000               _IDT_Init:
 256                     ; 85 	p_dr11_I2cSendB(0x04, 0x00);
 258  0000 5f            	clrw	x
 259  0001 a604          	ld	a,#4
 260  0003 95            	ld	xh,a
 261  0004 cd0000        	call	_p_dr11_I2cSendB
 263                     ; 86 	p_dr11_I2cSendB(0x05, 0x00);
 265  0007 5f            	clrw	x
 266  0008 a605          	ld	a,#5
 267  000a 95            	ld	xh,a
 268  000b cd0000        	call	_p_dr11_I2cSendB
 270                     ; 87 	p_dr11_I2cSendB(0x13, 0x2a);
 272  000e ae002a        	ldw	x,#42
 273  0011 a613          	ld	a,#19
 274  0013 95            	ld	xh,a
 275  0014 cd0000        	call	_p_dr11_I2cSendB
 277                     ; 88 	p_dr11_I2cSendB(0x14, 0x03);
 279  0017 ae0003        	ldw	x,#3
 280  001a a614          	ld	a,#20
 281  001c 95            	ld	xh,a
 282  001d cd0000        	call	_p_dr11_I2cSendB
 284                     ; 89 	p_dr11_I2cSendB(0x00, 0x00);
 286  0020 5f            	clrw	x
 287  0021 4f            	clr	a
 288  0022 95            	ld	xh,a
 289  0023 cd0000        	call	_p_dr11_I2cSendB
 291                     ; 90 	p_dr11_I2cSendB(0x01, 0x00);
 293  0026 5f            	clrw	x
 294  0027 a601          	ld	a,#1
 295  0029 95            	ld	xh,a
 296  002a cd0000        	call	_p_dr11_I2cSendB
 298                     ; 91 	p_dr11_I2cSendB(0x02, 0x7f);
 300  002d ae007f        	ldw	x,#127
 301  0030 a602          	ld	a,#2
 302  0032 95            	ld	xh,a
 303  0033 cd0000        	call	_p_dr11_I2cSendB
 305                     ; 92 	p_dr11_I2cSendB(0x03, 0x7f);
 307  0036 ae007f        	ldw	x,#127
 308  0039 a603          	ld	a,#3
 309  003b 95            	ld	xh,a
 310  003c cd0000        	call	_p_dr11_I2cSendB
 312                     ; 93 	p_dr11_I2cSendB(0x1a, 0xfc);
 314  003f ae00fc        	ldw	x,#252
 315  0042 a61a          	ld	a,#26
 316  0044 95            	ld	xh,a
 317  0045 cd0000        	call	_p_dr11_I2cSendB
 319                     ; 94 	p_dr11_I2cSendB(0x1b, 0x7f);
 321  0048 ae007f        	ldw	x,#127
 322  004b a61b          	ld	a,#27
 323  004d 95            	ld	xh,a
 324  004e cd0000        	call	_p_dr11_I2cSendB
 326                     ; 95 	p_dr11_I2cSendB(0x1c, 0xc2);
 328  0051 ae00c2        	ldw	x,#194
 329  0054 a61c          	ld	a,#28
 330  0056 95            	ld	xh,a
 331  0057 cd0000        	call	_p_dr11_I2cSendB
 333                     ; 96 	p_dr11_I2cSendB(0x1d, 0x00);
 335  005a 5f            	clrw	x
 336  005b a61d          	ld	a,#29
 337  005d 95            	ld	xh,a
 338  005e cd0000        	call	_p_dr11_I2cSendB
 340                     ; 97 	p_dr11_I2cSendB(0x1e, 0x83);
 342  0061 ae0083        	ldw	x,#131
 343  0064 a61e          	ld	a,#30
 344  0066 95            	ld	xh,a
 345  0067 cd0000        	call	_p_dr11_I2cSendB
 347                     ; 98 	p_dr11_I2cSendB(0x16, 0x00);
 349  006a 5f            	clrw	x
 350  006b a616          	ld	a,#22
 351  006d 95            	ld	xh,a
 352  006e cd0000        	call	_p_dr11_I2cSendB
 354                     ; 99 	p_dr11_I2cSendB(0x18, 0x00);
 356  0071 5f            	clrw	x
 357  0072 a618          	ld	a,#24
 358  0074 95            	ld	xh,a
 359  0075 cd0000        	call	_p_dr11_I2cSendB
 361                     ; 100 	p_dr11_I2cSendB(0x69, 0x20);
 363  0078 ae0020        	ldw	x,#32
 364  007b a669          	ld	a,#105
 365  007d 95            	ld	xh,a
 366  007e cd0000        	call	_p_dr11_I2cSendB
 368                     ; 101 	p_dr11_I2cSendB(0x20, 0x0e);
 370  0081 ae000e        	ldw	x,#14
 371  0084 a620          	ld	a,#32
 372  0086 95            	ld	xh,a
 373  0087 cd0000        	call	_p_dr11_I2cSendB
 375                     ; 103 	p_dr11_I2cSendB(0x25, 0x00);
 377  008a 5f            	clrw	x
 378  008b a625          	ld	a,#37
 379  008d 95            	ld	xh,a
 380  008e cd0000        	call	_p_dr11_I2cSendB
 382                     ; 104 	p_dr11_I2cSendB(0x26, 0x12);
 384  0091 ae0012        	ldw	x,#18
 385  0094 a626          	ld	a,#38
 386  0096 95            	ld	xh,a
 387  0097 cd0000        	call	_p_dr11_I2cSendB
 389                     ; 105 	p_dr11_I2cSendB(0x27, 0xaf);
 391  009a ae00af        	ldw	x,#175
 392  009d a627          	ld	a,#39
 393  009f 95            	ld	xh,a
 394  00a0 cd0000        	call	_p_dr11_I2cSendB
 396                     ; 106 	p_dr11_I2cSendB(0x28, 0x0a);
 398  00a3 ae000a        	ldw	x,#10
 399  00a6 a628          	ld	a,#40
 400  00a8 95            	ld	xh,a
 401  00a9 cd0000        	call	_p_dr11_I2cSendB
 403                     ; 107 	p_dr11_I2cSendB(0x29, 0x67);
 405  00ac ae0067        	ldw	x,#103
 406  00af a629          	ld	a,#41
 407  00b1 95            	ld	xh,a
 408  00b2 cd0000        	call	_p_dr11_I2cSendB
 410                     ; 108 	p_dr11_I2cSendB(0x2a, 0xb1);
 412  00b5 ae00b1        	ldw	x,#177
 413  00b8 a62a          	ld	a,#42
 414  00ba 95            	ld	xh,a
 415  00bb cd0000        	call	_p_dr11_I2cSendB
 417                     ; 109 	p_dr11_I2cSendB(0x2b, 0x36);
 419  00be ae0036        	ldw	x,#54
 420  00c1 a62b          	ld	a,#43
 421  00c3 95            	ld	xh,a
 422  00c4 cd0000        	call	_p_dr11_I2cSendB
 424                     ; 110 	p_dr11_I2cSendB(0x2c, 0xff);
 426  00c7 ae00ff        	ldw	x,#255
 427  00ca a62c          	ld	a,#44
 428  00cc 95            	ld	xh,a
 429  00cd cd0000        	call	_p_dr11_I2cSendB
 431                     ; 111 	p_dr11_I2cSendB(0x2d, 0xf1);
 433  00d0 ae00f1        	ldw	x,#241
 434  00d3 a62d          	ld	a,#45
 435  00d5 95            	ld	xh,a
 436  00d6 cd0000        	call	_p_dr11_I2cSendB
 438                     ; 112 	p_dr11_I2cSendB(0x2e, 0xf1);
 440  00d9 ae00f1        	ldw	x,#241
 441  00dc a62e          	ld	a,#46
 442  00de 95            	ld	xh,a
 443  00df cd0000        	call	_p_dr11_I2cSendB
 445                     ; 113 	p_dr11_I2cSendB(0x2f, 0xb3);
 447  00e2 ae00b3        	ldw	x,#179
 448  00e5 a62f          	ld	a,#47
 449  00e7 95            	ld	xh,a
 450  00e8 cd0000        	call	_p_dr11_I2cSendB
 452                     ; 114 	p_dr11_I2cSendB(0x30, 0xd8);
 454  00eb ae00d8        	ldw	x,#216
 455  00ee a630          	ld	a,#48
 456  00f0 95            	ld	xh,a
 457  00f1 cd0000        	call	_p_dr11_I2cSendB
 459                     ; 115 	p_dr11_I2cSendB(0x31, 0x36);
 461  00f4 ae0036        	ldw	x,#54
 462  00f7 a631          	ld	a,#49
 463  00f9 95            	ld	xh,a
 464  00fa cd0000        	call	_p_dr11_I2cSendB
 466                     ; 116 	p_dr11_I2cSendB(0x32, 0xff);
 468  00fd ae00ff        	ldw	x,#255
 469  0100 a632          	ld	a,#50
 470  0102 95            	ld	xh,a
 471  0103 cd0000        	call	_p_dr11_I2cSendB
 473                     ; 117 	p_dr11_I2cSendB(0x33, 0x94);
 475  0106 ae0094        	ldw	x,#148
 476  0109 a633          	ld	a,#51
 477  010b 95            	ld	xh,a
 478  010c cd0000        	call	_p_dr11_I2cSendB
 480                     ; 118 	p_dr11_I2cSendB(0x34, 0x01);
 482  010f ae0001        	ldw	x,#1
 483  0112 a634          	ld	a,#52
 484  0114 95            	ld	xh,a
 485  0115 cd0000        	call	_p_dr11_I2cSendB
 487                     ; 119 	p_dr11_I2cSendB(0x35, 0xb3);
 489  0118 ae00b3        	ldw	x,#179
 490  011b a635          	ld	a,#53
 491  011d 95            	ld	xh,a
 492  011e cd0000        	call	_p_dr11_I2cSendB
 494                     ; 120 	p_dr11_I2cSendB(0x36, 0xd8);
 496  0121 ae00d8        	ldw	x,#216
 497  0124 a636          	ld	a,#54
 498  0126 95            	ld	xh,a
 499  0127 cd0000        	call	_p_dr11_I2cSendB
 501                     ; 121 	p_dr11_I2cSendB(0x37, 0x9b);
 503  012a ae009b        	ldw	x,#155
 504  012d a637          	ld	a,#55
 505  012f 95            	ld	xh,a
 506  0130 cd0000        	call	_p_dr11_I2cSendB
 508                     ; 122 	p_dr11_I2cSendB(0x38, 0xff);
 510  0133 ae00ff        	ldw	x,#255
 511  0136 a638          	ld	a,#56
 512  0138 95            	ld	xh,a
 513  0139 cd0000        	call	_p_dr11_I2cSendB
 515                     ; 123 	p_dr11_I2cSendB(0x39, 0x00);
 517  013c 5f            	clrw	x
 518  013d a639          	ld	a,#57
 519  013f 95            	ld	xh,a
 520  0140 cd0000        	call	_p_dr11_I2cSendB
 522                     ; 125 	IDT_EQ();
 524  0143 cd01ca        	call	_IDT_EQ
 526                     ; 126 	p_dr11_I2cSendB(0x04,VolTable[u8Volume-1]);
 528  0146 b600          	ld	a,_u8Volume
 529  0148 5f            	clrw	x
 530  0149 97            	ld	xl,a
 531  014a 5a            	decw	x
 532  014b d602c0        	ld	a,(_VolTable,x)
 533  014e 97            	ld	xl,a
 534  014f a604          	ld	a,#4
 535  0151 95            	ld	xh,a
 536  0152 cd0000        	call	_p_dr11_I2cSendB
 538                     ; 127 	p_dr11_I2cSendB(0x05, VolTable[u8Volume-1]);
 540  0155 b600          	ld	a,_u8Volume
 541  0157 5f            	clrw	x
 542  0158 97            	ld	xl,a
 543  0159 5a            	decw	x
 544  015a d602c0        	ld	a,(_VolTable,x)
 545  015d 97            	ld	xl,a
 546  015e a605          	ld	a,#5
 547  0160 95            	ld	xh,a
 548  0161 cd0000        	call	_p_dr11_I2cSendB
 550                     ; 128 	Audio_SetAudioSource(SourceSelect);
 552  0164 b600          	ld	a,_SourceSelect
 553  0166 cd0000        	call	_Audio_SetAudioSource
 555                     ; 130 }
 558  0169 81            	ret
 596                     ; 145 void IDT_SetVolume(u8 Volume)
 596                     ; 146 {
 597                     	switch	.text
 598  016a               _IDT_SetVolume:
 602                     ; 148 	if (Volume == MIN_VOLUME)
 604  016a 4d            	tnz	a
 605  016b 2604          	jrne	L73
 606                     ; 150 		IDT_MuteOn();
 608  016d ad21          	call	_IDT_MuteOn
 611  016f 201e          	jra	L14
 612  0171               L73:
 613                     ; 154 		p_dr11_I2cSendB(0x04, VolTable[u8Volume-1]);	
 615  0171 b600          	ld	a,_u8Volume
 616  0173 5f            	clrw	x
 617  0174 97            	ld	xl,a
 618  0175 5a            	decw	x
 619  0176 d602c0        	ld	a,(_VolTable,x)
 620  0179 97            	ld	xl,a
 621  017a a604          	ld	a,#4
 622  017c 95            	ld	xh,a
 623  017d cd0000        	call	_p_dr11_I2cSendB
 625                     ; 155 		p_dr11_I2cSendB(0x05, VolTable[u8Volume-1]);
 627  0180 b600          	ld	a,_u8Volume
 628  0182 5f            	clrw	x
 629  0183 97            	ld	xl,a
 630  0184 5a            	decw	x
 631  0185 d602c0        	ld	a,(_VolTable,x)
 632  0188 97            	ld	xl,a
 633  0189 a605          	ld	a,#5
 634  018b 95            	ld	xh,a
 635  018c cd0000        	call	_p_dr11_I2cSendB
 637  018f               L14:
 638                     ; 158 }
 641  018f 81            	ret
 665                     ; 171 void IDT_MuteOn(void)
 665                     ; 172 {
 666                     	switch	.text
 667  0190               _IDT_MuteOn:
 671                     ; 173 	p_dr11_I2cSendB(0x04, 0);
 673  0190 5f            	clrw	x
 674  0191 a604          	ld	a,#4
 675  0193 95            	ld	xh,a
 676  0194 cd0000        	call	_p_dr11_I2cSendB
 678                     ; 175 	p_dr11_I2cSendB(0x05, 0);
 680  0197 5f            	clrw	x
 681  0198 a605          	ld	a,#5
 682  019a 95            	ld	xh,a
 683  019b cd0000        	call	_p_dr11_I2cSendB
 685                     ; 177 }
 688  019e 81            	ret
 723                     ; 190 void IDT_InputChannel(u8 ChannelNum)
 723                     ; 191 {
 724                     	switch	.text
 725  019f               _IDT_InputChannel:
 729                     ; 195 	switch(ChannelNum)
 732                     ; 208 			break;
 733  019f 4d            	tnz	a
 734  01a0 2705          	jreq	L35
 735  01a2 4a            	dec	a
 736  01a3 2712          	jreq	L55
 737  01a5 2022          	jra	L77
 738  01a7               L35:
 739                     ; 197 		case INPUT1_CHANNEL:
 739                     ; 198 			p_dr11_I2cSendB(0x0C, 0x00);
 741  01a7 5f            	clrw	x
 742  01a8 a60c          	ld	a,#12
 743  01aa 95            	ld	xh,a
 744  01ab cd0000        	call	_p_dr11_I2cSendB
 746                     ; 200 			p_dr11_I2cSendB(0x0D, 0x00);
 748  01ae 5f            	clrw	x
 749  01af a60d          	ld	a,#13
 750  01b1 95            	ld	xh,a
 751  01b2 cd0000        	call	_p_dr11_I2cSendB
 753                     ; 202 			break;
 755  01b5 2012          	jra	L77
 756  01b7               L55:
 757                     ; 203 		case INPUT2_CHANNEL:
 757                     ; 204 			p_dr11_I2cSendB(0x0C, 0x40);
 759  01b7 ae0040        	ldw	x,#64
 760  01ba a60c          	ld	a,#12
 761  01bc 95            	ld	xh,a
 762  01bd cd0000        	call	_p_dr11_I2cSendB
 764                     ; 206 			p_dr11_I2cSendB(0x0D, 0x40);
 766  01c0 ae0040        	ldw	x,#64
 767  01c3 a60d          	ld	a,#13
 768  01c5 95            	ld	xh,a
 769  01c6 cd0000        	call	_p_dr11_I2cSendB
 771                     ; 208 			break;
 773  01c9               L77:
 774                     ; 211 }	
 777  01c9 81            	ret
 850                     ; 224 void IDT_EQ(void)
 850                     ; 225 {
 851                     	switch	.text
 852  01ca               _IDT_EQ:
 854  01ca 5205          	subw	sp,#5
 855       00000005      OFST:	set	5
 858                     ; 228 	p_dr11_I2cSendB(0x04, 0x00);
 860  01cc 5f            	clrw	x
 861  01cd a604          	ld	a,#4
 862  01cf 95            	ld	xh,a
 863  01d0 cd0000        	call	_p_dr11_I2cSendB
 865                     ; 229 	p_dr11_I2cSendB(0x05,0x00);
 867  01d3 5f            	clrw	x
 868  01d4 a605          	ld	a,#5
 869  01d6 95            	ld	xh,a
 870  01d7 cd0000        	call	_p_dr11_I2cSendB
 872                     ; 230 	for( i=0; i < 176; i++)
 874  01da 0f05          	clr	(OFST+0,sp)
 875  01dc               L541:
 876                     ; 234 			 p_dr11_I2cRecB(0x8a,&DACCRStat);
 878  01dc 96            	ldw	x,sp
 879  01dd 1c0004        	addw	x,#OFST-1
 880  01e0 89            	pushw	x
 881  01e1 a68a          	ld	a,#138
 882  01e3 cd0000        	call	_p_dr11_I2cRecB
 884  01e6 85            	popw	x
 885                     ; 236 		while(DACCRStat != 0);
 887  01e7 0d04          	tnz	(OFST-1,sp)
 888  01e9 26f1          	jrne	L541
 889                     ; 238 		LowByte = (Coeff[i] & 0xff);
 891  01eb 7b05          	ld	a,(OFST+0,sp)
 892  01ed 97            	ld	xl,a
 893  01ee a604          	ld	a,#4
 894  01f0 42            	mul	x,a
 895  01f1 d60003        	ld	a,(_Coeff+3,x)
 896  01f4 a4ff          	and	a,#255
 897  01f6 6b01          	ld	(OFST-4,sp),a
 898                     ; 239 		MidByte = ((Coeff[i] >> 8) & 0xff);
 900  01f8 7b05          	ld	a,(OFST+0,sp)
 901  01fa 97            	ld	xl,a
 902  01fb a604          	ld	a,#4
 903  01fd 42            	mul	x,a
 904  01fe 1c0000        	addw	x,#_Coeff
 905  0201 cd0000        	call	c_ltor
 907  0204 a608          	ld	a,#8
 908  0206 cd0000        	call	c_lursh
 910  0209 3f02          	clr	c_lreg+2
 911  020b 3f01          	clr	c_lreg+1
 912  020d 3f00          	clr	c_lreg
 913  020f b603          	ld	a,c_lreg+3
 914  0211 6b02          	ld	(OFST-3,sp),a
 915                     ; 240 		HighByte =  ((Coeff[i] >> 16) & 0xff);
 917  0213 7b05          	ld	a,(OFST+0,sp)
 918  0215 97            	ld	xl,a
 919  0216 a604          	ld	a,#4
 920  0218 42            	mul	x,a
 921  0219 1c0000        	addw	x,#_Coeff
 922  021c cd0000        	call	c_ltor
 924  021f a610          	ld	a,#16
 925  0221 cd0000        	call	c_lursh
 927  0224 3f02          	clr	c_lreg+2
 928  0226 3f01          	clr	c_lreg+1
 929  0228 3f00          	clr	c_lreg
 930  022a b603          	ld	a,c_lreg+3
 931  022c 6b03          	ld	(OFST-2,sp),a
 932                     ; 242 		p_dr11_I2cSendB(0x40, i);
 934  022e 7b05          	ld	a,(OFST+0,sp)
 935  0230 97            	ld	xl,a
 936  0231 a640          	ld	a,#64
 937  0233 95            	ld	xh,a
 938  0234 cd0000        	call	_p_dr11_I2cSendB
 940                     ; 244 		p_dr11_I2cSendB(0x3a, LowByte);
 942  0237 7b01          	ld	a,(OFST-4,sp)
 943  0239 97            	ld	xl,a
 944  023a a63a          	ld	a,#58
 945  023c 95            	ld	xh,a
 946  023d cd0000        	call	_p_dr11_I2cSendB
 948                     ; 246 		p_dr11_I2cSendB(0x3b, MidByte);
 950  0240 7b02          	ld	a,(OFST-3,sp)
 951  0242 97            	ld	xl,a
 952  0243 a63b          	ld	a,#59
 953  0245 95            	ld	xh,a
 954  0246 cd0000        	call	_p_dr11_I2cSendB
 956                     ; 248 		p_dr11_I2cSendB(0x3c, HighByte);
 958  0249 7b03          	ld	a,(OFST-2,sp)
 959  024b 97            	ld	xl,a
 960  024c a63c          	ld	a,#60
 961  024e 95            	ld	xh,a
 962  024f cd0000        	call	_p_dr11_I2cSendB
 964                     ; 230 	for( i=0; i < 176; i++)
 966  0252 0c05          	inc	(OFST+0,sp)
 969  0254 7b05          	ld	a,(OFST+0,sp)
 970  0256 a1b0          	cp	a,#176
 971  0258 2402          	jruge	L61
 972  025a 2080          	jp	L541
 973  025c               L61:
 974                     ; 254 }
 977  025c 5b05          	addw	sp,#5
 978  025e 81            	ret
1013                     	xdef	_VolTable
1014                     	xdef	_Coeff
1015                     	xdef	_IDT_EQ
1016                     	xref	_p_dr11_I2cRecB
1017                     	xref	_p_dr11_I2cSendB
1018                     	xdef	_IDT_MuteOn
1019                     	xdef	_IDT_Init
1020                     	xdef	_IDT_SetVolume
1021                     	xdef	_IDT_InputChannel
1022                     	xref	_Audio_SetAudioSource
1023                     	xref.b	_u8Volume
1024                     	xref.b	_SourceSelect
1025                     	xref.b	c_lreg
1044                     	xref	c_lursh
1045                     	xref	c_ltor
1046                     	end
